Certificate:
    Data:
        Version: 3 (0x2)
        Serial Number:
            eb:6b:4d:43:a9:8c:b5:23
    Signature Algorithm: sha256WithRSAEncryption
        Issuer: C=TN, ST=Tunis, O=Insat, OU=Insat, CN=Insat/emailAddress=insat@insat.com
        Validity
            Not Before: Jan 24 01:27:58 2020 GMT
            Not After : Jan 17 01:27:58 2045 GMT
        Subject: C=TN, ST=Tunis, O=Insat, OU=Insat, CN=Insat/emailAddress=insat@insat.com
        Subject Public Key Info:
            Public Key Algorithm: rsaEncryption
                Public-Key: (2048 bit)
                Modulus:
                    00:cb:a1:74:ee:2a:0c:71:07:76:d5:a1:16:b6:0a:
                    90:71:73:fb:3a:0a:9a:2c:3d:56:d9:c9:ad:71:bd:
                    78:27:6c:5d:7c:a6:46:bd:87:60:68:64:49:a3:6a:
                    2c:6c:61:03:bd:a5:1a:c3:80:1f:25:14:7b:c4:8e:
                    e2:ff:32:8b:ba:74:69:f3:3e:30:3a:c7:a3:71:04:
                    ba:1b:2f:68:a5:c6:ef:80:be:e5:ee:92:62:bd:48:
                    cb:68:8e:4a:84:5a:b6:58:32:dd:73:c2:33:35:40:
                    79:bb:ff:37:e7:0c:f3:07:d7:aa:da:e8:96:88:7d:
                    03:76:68:be:d5:34:af:8b:38:41:b0:ad:6a:c8:f8:
                    36:47:e2:18:a1:e3:36:8a:56:c9:d1:9d:70:d5:20:
                    b6:fe:28:98:b7:d6:2b:ac:34:89:8c:20:51:18:ca:
                    d0:f5:39:ed:4f:12:22:25:c4:ff:34:ad:6e:cd:f9:
                    23:d3:95:c2:24:cb:fc:bf:cd:92:6a:ba:e4:b9:71:
                    0f:24:58:a9:58:74:2b:21:8b:0e:35:2e:47:8e:05:
                    41:49:e1:85:14:e3:f1:d4:da:36:7f:ed:0b:05:62:
                    51:2f:bc:d7:6b:a3:e1:3b:3b:9d:ab:1a:39:ca:c9:
                    7a:23:1c:2c:c0:e2:de:b3:13:e7:b8:cc:62:ae:de:
                    2a:49
                Exponent: 65537 (0x10001)
        X509v3 extensions:
            X509v3 Subject Key Identifier: 
                BD:53:C3:B5:DF:AD:85:F3:9E:BD:A5:80:51:64:AB:77:B6:17:B5:F3
            X509v3 Authority Key Identifier: 
                keyid:BD:53:C3:B5:DF:AD:85:F3:9E:BD:A5:80:51:64:AB:77:B6:17:B5:F3

            X509v3 Basic Constraints: 
                CA:TRUE
    Signature Algorithm: sha256WithRSAEncryption
         6e:92:3c:6d:f9:0c:a2:ac:8e:3c:75:19:37:38:b8:82:8c:ba:
         1e:6f:f6:5a:93:1b:40:80:ac:db:ff:e7:c7:f9:a9:27:60:a5:
         59:8f:7c:92:9f:c6:ff:56:3c:da:97:e3:cc:62:b5:09:df:92:
         e5:d1:c3:96:62:9c:85:e7:a5:78:ef:c7:6b:7e:0c:c7:10:f2:
         af:71:b1:ff:9b:c7:9e:c3:f3:62:a8:73:a6:83:8f:31:cb:c5:
         66:64:47:6e:30:d5:4a:1b:59:fc:85:d9:7f:3a:9f:01:48:a1:
         6a:a8:fd:03:ab:7a:2f:34:c3:c1:8b:05:4e:19:2e:38:0a:7d:
         fd:a0:dc:6c:c1:70:2f:d7:8f:55:0e:8a:6f:08:db:54:ba:a2:
         90:ea:63:21:64:ea:3b:0d:86:12:88:fc:e3:98:f4:00:de:f3:
         e5:98:51:d1:c7:6b:e8:7f:61:30:30:b1:a2:58:a3:69:ff:82:
         cd:22:a3:33:dd:87:0d:af:e4:02:f6:b9:8e:bc:ec:fa:4d:c6:
         ce:08:fb:f6:6e:2d:e3:08:84:f1:74:e9:a3:0e:7b:91:09:a3:
         1f:05:8f:08:f7:42:0d:9c:ac:0a:5c:81:ca:54:88:a1:39:bf:
         9f:08:61:6b:c0:c8:8f:d8:32:23:3e:ae:a1:dd:6e:91:7b:a2:
         e1:4b:96:f7
-----BEGIN CERTIFICATE-----
MIIDrTCCApWgAwIBAgIJAOtrTUOpjLUjMA0GCSqGSIb3DQEBCwUAMG0xCzAJBgNV
BAYTAlROMQ4wDAYDVQQIDAVUdW5pczEOMAwGA1UECgwFSW5zYXQxDjAMBgNVBAsM
BUluc2F0MQ4wDAYDVQQDDAVJbnNhdDEeMBwGCSqGSIb3DQEJARYPaW5zYXRAaW5z
YXQuY29tMB4XDTIwMDEyNDAxMjc1OFoXDTQ1MDExNzAxMjc1OFowbTELMAkGA1UE
BhMCVE4xDjAMBgNVBAgMBVR1bmlzMQ4wDAYDVQQKDAVJbnNhdDEOMAwGA1UECwwF
SW5zYXQxDjAMBgNVBAMMBUluc2F0MR4wHAYJKoZIhvcNAQkBFg9pbnNhdEBpbnNh
dC5jb20wggEiMA0GCSqGSIb3DQEBAQUAA4IBDwAwggEKAoIBAQDLoXTuKgxxB3bV
oRa2CpBxc/s6CposPVbZya1xvXgnbF18pka9h2BoZEmjaixsYQO9pRrDgB8lFHvE
juL/Mou6dGnzPjA6x6NxBLobL2ilxu+AvuXukmK9SMtojkqEWrZYMt1zwjM1QHm7
/zfnDPMH16ra6JaIfQN2aL7VNK+LOEGwrWrI+DZH4hih4zaKVsnRnXDVILb+KJi3
1iusNImMIFEYytD1Oe1PEiIlxP80rW7N+SPTlcIky/y/zZJquuS5cQ8kWKlYdCsh
iw41LkeOBUFJ4YUU4/HU2jZ/7QsFYlEvvNdro+E7O52rGjnKyXojHCzA4t6zE+e4
zGKu3ipJAgMBAAGjUDBOMB0GA1UdDgQWBBS9U8O1362F8569pYBRZKt3the18zAf
BgNVHSMEGDAWgBS9U8O1362F8569pYBRZKt3the18zAMBgNVHRMEBTADAQH/MA0G
CSqGSIb3DQEBCwUAA4IBAQBukjxt+QyirI48dRk3OLiCjLoeb/ZakxtAgKzb/+fH
+aknYKVZj3ySn8b/Vjzal+PMYrUJ35Ll0cOWYpyF56V478drfgzHEPKvcbH/m8ee
w/NiqHOmg48xy8VmZEduMNVKG1n8hdl/Op8BSKFqqP0Dq3ovNMPBiwVOGS44Cn39
oNxswXAv149VDopvCNtUuqKQ6mMhZOo7DYYSiPzjmPQA3vPlmFHRx2vof2EwMLGi
WKNp/4LNIqMz3YcNr+QC9rmOvOz6TcbOCPv2bi3jCITxdOmjDnuRCaMfBY8I90IN
nKwKXIHKVIihOb+fCGFrwMiP2DIjPq6h3W6Re6LhS5b3
-----END CERTIFICATE-----
